target datalayout = "e-m:e-p270:32:32-p271:32:32-p272:64:64-i64:64-i128:128-f80:128-n8:16:32:64-S128"
target triple = "x86_64-pc-linux-gnu"

%struct.AVHWDeviceContext = type { ptr, i32, ptr, ptr, ptr }
%struct.AVVAAPIDeviceContext = type { ptr, i32 }
%struct.AVHWFramesContext = type { ptr, ptr, ptr, ptr, ptr, ptr, ptr, i32, i32, i32, i32, i32 }
%struct.VAAPIFramesContext = type { %struct.AVVAAPIFramesContext, ptr, i32, i32, i32, i32 }
%struct.AVVAAPIFramesContext = type { ptr, i32, ptr, i32 }

@.str.54 = private unnamed_addr constant [30 x i8] c"Assertion %s failed at %s:%d\0A\00", align 1
@.str.56 = private unnamed_addr constant [28 x i8] c"libavutil/hwcontext_vaapi.c\00", align 1
@.str.64 = private unnamed_addr constant [36 x i8] c"Failed to create surface: %d (%s).\0A\00", align 1
@.str.65 = private unnamed_addr constant [22 x i8] c"Created surface %#x.\0A\00", align 1
@.str.66 = private unnamed_addr constant [44 x i8] c"avfc->nb_surfaces < hwfc->initial_pool_size\00", align 1

; Function Attrs: nounwind uwtable
define internal ptr @vaapi_pool_alloc(ptr noundef %0, i64 noundef %1) #0 {
  %3 = alloca ptr, align 8
  %4 = alloca ptr, align 8
  %5 = alloca i64, align 8
  %6 = alloca ptr, align 8
  %7 = alloca ptr, align 8
  %8 = alloca ptr, align 8
  %9 = alloca ptr, align 8
  %10 = alloca i32, align 4
  %11 = alloca i32, align 4
  %12 = alloca ptr, align 8
  %13 = alloca i32, align 4
  store ptr %0, ptr %4, align 8, !tbaa !15
  store i64 %1, ptr %5, align 8, !tbaa !161
  call void @llvm.lifetime.start.p0(i64 8, ptr %6) #10
  %14 = load ptr, ptr %4, align 8, !tbaa !15
  store ptr %14, ptr %6, align 8, !tbaa !97
  call void @llvm.lifetime.start.p0(i64 8, ptr %7) #10
  %15 = load ptr, ptr %6, align 8, !tbaa !97
  %16 = getelementptr inbounds nuw %struct.AVHWFramesContext, ptr %15, i32 0, i32 3
  %17 = load ptr, ptr %16, align 8, !tbaa !99
  store ptr %17, ptr %7, align 8, !tbaa !103
  call void @llvm.lifetime.start.p0(i64 8, ptr %8) #10
  %18 = load ptr, ptr %7, align 8, !tbaa !103
  %19 = getelementptr inbounds nuw %struct.VAAPIFramesContext, ptr %18, i32 0, i32 0
  store ptr %19, ptr %8, align 8, !tbaa !105
  call void @llvm.lifetime.start.p0(i64 8, ptr %9) #10
  %20 = load ptr, ptr %6, align 8, !tbaa !97
  %21 = getelementptr inbounds nuw %struct.AVHWFramesContext, ptr %20, i32 0, i32 2
  %22 = load ptr, ptr %21, align 8, !tbaa !107
  %23 = getelementptr inbounds nuw %struct.AVHWDeviceContext, ptr %22, i32 0, i32 2
  %24 = load ptr, ptr %23, align 8, !tbaa !43
  store ptr %24, ptr %9, align 8, !tbaa !52
  call void @llvm.lifetime.start.p0(i64 4, ptr %10) #10
  call void @llvm.lifetime.start.p0(i64 4, ptr %11) #10
  call void @llvm.lifetime.start.p0(i64 8, ptr %12) #10
  %25 = load ptr, ptr %6, align 8, !tbaa !97
  %26 = getelementptr inbounds nuw %struct.AVHWFramesContext, ptr %25, i32 0, i32 7
  %27 = load i32, ptr %26, align 8, !tbaa !129
  %28 = icmp sgt i32 %27, 0
  br i1 %28, label %29, label %38

29:                                               ; preds = %2
  %30 = load ptr, ptr %8, align 8, !tbaa !105
  %31 = getelementptr inbounds nuw %struct.AVVAAPIFramesContext, ptr %30, i32 0, i32 3
  %32 = load i32, ptr %31, align 8, !tbaa !130
  %33 = load ptr, ptr %6, align 8, !tbaa !97
  %34 = getelementptr inbounds nuw %struct.AVHWFramesContext, ptr %33, i32 0, i32 7
  %35 = load i32, ptr %34, align 8, !tbaa !129
  %36 = icmp sge i32 %32, %35
  br i1 %36, label %37, label %38

37:                                               ; preds = %29
  store ptr null, ptr %3, align 8
  store i32 1, ptr %13, align 4
  br label %113

38:                                               ; preds = %29, %2
  %39 = load ptr, ptr %9, align 8, !tbaa !52
  %40 = getelementptr inbounds nuw %struct.AVVAAPIDeviceContext, ptr %39, i32 0, i32 0
  %41 = load ptr, ptr %40, align 8, !tbaa !56
  %42 = load ptr, ptr %7, align 8, !tbaa !103
  %43 = getelementptr inbounds nuw %struct.VAAPIFramesContext, ptr %42, i32 0, i32 3
  %44 = load i32, ptr %43, align 4, !tbaa !128
  %45 = load ptr, ptr %6, align 8, !tbaa !97
  %46 = getelementptr inbounds nuw %struct.AVHWFramesContext, ptr %45, i32 0, i32 10
  %47 = load i32, ptr %46, align 4, !tbaa !152
  %48 = load ptr, ptr %6, align 8, !tbaa !97
  %49 = getelementptr inbounds nuw %struct.AVHWFramesContext, ptr %48, i32 0, i32 11
  %50 = load i32, ptr %49, align 8, !tbaa !154
  %51 = load ptr, ptr %7, align 8, !tbaa !103
  %52 = getelementptr inbounds nuw %struct.VAAPIFramesContext, ptr %51, i32 0, i32 1
  %53 = load ptr, ptr %52, align 8, !tbaa !120
  %54 = load ptr, ptr %7, align 8, !tbaa !103
  %55 = getelementptr inbounds nuw %struct.VAAPIFramesContext, ptr %54, i32 0, i32 2
  %56 = load i32, ptr %55, align 8, !tbaa !118
  %57 = call i32 @vaCreateSurfaces(ptr noundef %41, i32 noundef %44, i32 noundef %47, i32 noundef %50, ptr noundef %10, i32 noundef 1, ptr noundef %53, i32 noundef %56)
  store i32 %57, ptr %11, align 4, !tbaa !13
  %58 = load i32, ptr %11, align 4, !tbaa !13
  %59 = icmp ne i32 %58, 0
  br i1 %59, label %60, label %65

60:                                               ; preds = %38
  %61 = load ptr, ptr %6, align 8, !tbaa !97
  %62 = load i32, ptr %11, align 4, !tbaa !13
  %63 = load i32, ptr %11, align 4, !tbaa !13
  %64 = call ptr @vaErrorStr(i32 noundef %63)
  call void (ptr, i32, ptr, ...) @av_log(ptr noundef %61, i32 noundef 16, ptr noundef @.str.64, i32 noundef %62, ptr noundef %64)
  store ptr null, ptr %3, align 8
  store i32 1, ptr %13, align 4
  br label %113

65:                                               ; preds = %38
  %66 = load ptr, ptr %6, align 8, !tbaa !97
  %67 = load i32, ptr %10, align 4, !tbaa !13
  call void (ptr, i32, ptr, ...) @av_log(ptr noundef %66, i32 noundef 48, ptr noundef @.str.65, i32 noundef %67)
  %68 = load i32, ptr %10, align 4, !tbaa !13
  %69 = zext i32 %68 to i64
  %70 = inttoptr i64 %69 to ptr
  %71 = load ptr, ptr %6, align 8, !tbaa !97
  %72 = call ptr @av_buffer_create(ptr noundef %70, i64 noundef 4, ptr noundef @vaapi_buffer_free, ptr noundef %71, i32 noundef 1)
  store ptr %72, ptr %12, align 8, !tbaa !108
  %73 = load ptr, ptr %12, align 8, !tbaa !108
  %74 = icmp ne ptr %73, null
  br i1 %74, label %80, label %75

75:                                               ; preds = %65
  %76 = load ptr, ptr %9, align 8, !tbaa !52
  %77 = getelementptr inbounds nuw %struct.AVVAAPIDeviceContext, ptr %76, i32 0, i32 0
  %78 = load ptr, ptr %77, align 8, !tbaa !56
  %79 = call i32 @vaDestroySurfaces(ptr noundef %78, ptr noundef %10, i32 noundef 1)
  store ptr null, ptr %3, align 8
  store i32 1, ptr %13, align 4
  br label %113

80:                                               ; preds = %65
  %81 = load ptr, ptr %6, align 8, !tbaa !97
  %82 = getelementptr inbounds nuw %struct.AVHWFramesContext, ptr %81, i32 0, i32 7
  %83 = load i32, ptr %82, align 8, !tbaa !129
  %84 = icmp sgt i32 %83, 0
  br i1 %84, label %85, label %111

85:                                               ; preds = %80
  br label %86

86:                                               ; preds = %85
  %87 = load ptr, ptr %8, align 8, !tbaa !105
  %88 = getelementptr inbounds nuw %struct.AVVAAPIFramesContext, ptr %87, i32 0, i32 3
  %89 = load i32, ptr %88, align 8, !tbaa !130
  %90 = load ptr, ptr %6, align 8, !tbaa !97
  %91 = getelementptr inbounds nuw %struct.AVHWFramesContext, ptr %90, i32 0, i32 7
  %92 = load i32, ptr %91, align 8, !tbaa !129
  %93 = icmp slt i32 %89, %92
  br i1 %93, label %95, label %94

94:                                               ; preds = %86
  call void (ptr, i32, ptr, ...) @av_log(ptr noundef null, i32 noundef 0, ptr noundef @.str.54, ptr noundef @.str.66, ptr noundef @.str.56, i32 noundef 544)
  call void @abort() #13
  unreachable

95:                                               ; preds = %86
  br label %96

96:                                               ; preds = %95
  br label %97

97:                                               ; preds = %96
  %98 = load i32, ptr %10, align 4, !tbaa !13
  %99 = load ptr, ptr %8, align 8, !tbaa !105
  %100 = getelementptr inbounds nuw %struct.AVVAAPIFramesContext, ptr %99, i32 0, i32 2
  %101 = load ptr, ptr %100, align 8, !tbaa !131
  %102 = load ptr, ptr %8, align 8, !tbaa !105
  %103 = getelementptr inbounds nuw %struct.AVVAAPIFramesContext, ptr %102, i32 0, i32 3
  %104 = load i32, ptr %103, align 8, !tbaa !130
  %105 = sext i32 %104 to i64
  %106 = getelementptr inbounds i32, ptr %101, i64 %105
  store i32 %98, ptr %106, align 4, !tbaa !13
  %107 = load ptr, ptr %8, align 8, !tbaa !105
  %108 = getelementptr inbounds nuw %struct.AVVAAPIFramesContext, ptr %107, i32 0, i32 3
  %109 = load i32, ptr %108, align 8, !tbaa !130
  %110 = add nsw i32 %109, 1
  store i32 %110, ptr %108, align 8, !tbaa !130
  br label %111

111:                                              ; preds = %97, %80
  %112 = load ptr, ptr %12, align 8, !tbaa !108
  store ptr %112, ptr %3, align 8
  store i32 1, ptr %13, align 4
  br label %113

113:                                              ; preds = %111, %75, %60, %37
  call void @llvm.lifetime.end.p0(i64 8, ptr %12) #10
  call void @llvm.lifetime.end.p0(i64 4, ptr %11) #10
  call void @llvm.lifetime.end.p0(i64 4, ptr %10) #10
  call void @llvm.lifetime.end.p0(i64 8, ptr %9) #10
  call void @llvm.lifetime.end.p0(i64 8, ptr %8) #10
  call void @llvm.lifetime.end.p0(i64 8, ptr %7) #10
  call void @llvm.lifetime.end.p0(i64 8, ptr %6) #10
  %114 = load ptr, ptr %3, align 8
  ret ptr %114
}