; Function Attrs: nounwind uwtable
define internal ptr @vaapi_pool_alloc(ptr noundef %0, i64 %1) #0 {
  %3 = alloca i32, align 4
  %4 = getelementptr inbounds nuw i8, ptr %0, i64 24
  %5 = load ptr, ptr %4, align 8, !tbaa !75
  %6 = getelementptr inbounds nuw i8, ptr %0, i64 16
  %7 = load ptr, ptr %6, align 8, !tbaa !80
  %8 = getelementptr inbounds nuw i8, ptr %7, i64 16
  %9 = load ptr, ptr %8, align 8, !tbaa !31
  call void @llvm.lifetime.start.p0(i64 4, ptr nonnull %3) #11
  %10 = getelementptr inbounds nuw i8, ptr %0, i64 56
  %11 = load i32, ptr %10, align 8, !tbaa !97
  %12 = icmp sgt i32 %11, 0
  br i1 %12, label %13, label %16

13:                                               ; preds = %2
  %14 = getelementptr inbounds nuw i8, ptr %5, i64 24
  %15 = load i32, ptr %14, align 8, !tbaa !98
  %.not = icmp slt i32 %15, %11
  br i1 %.not, label %16, label %56

16:                                               ; preds = %13, %2
  %17 = load ptr, ptr %9, align 8, !tbaa !34
  %18 = getelementptr inbounds nuw i8, ptr %5, i64 44
  %19 = load i32, ptr %18, align 4, !tbaa !96
  %20 = getelementptr inbounds nuw i8, ptr %0, i64 68
  %21 = load i32, ptr %20, align 4, !tbaa !122
  %22 = getelementptr inbounds nuw i8, ptr %0, i64 72
  %23 = load i32, ptr %22, align 8, !tbaa !124
  %24 = getelementptr inbounds nuw i8, ptr %5, i64 32
  %25 = load ptr, ptr %24, align 8, !tbaa !92
  %26 = getelementptr inbounds nuw i8, ptr %5, i64 40
  %27 = load i32, ptr %26, align 8, !tbaa !90
  %28 = call i32 @vaCreateSurfaces(ptr noundef %17, i32 noundef %19, i32 noundef %21, i32 noundef %23, ptr noundef nonnull %3, i32 noundef 1, ptr noundef %25, i32 noundef %27) #11
  %.not33 = icmp eq i32 %28, 0
  br i1 %.not33, label %31, label %29

29:                                               ; preds = %16
  %30 = call ptr @vaErrorStr(i32 noundef %28) #11
  call void (ptr, i32, ptr, ...) @av_log(ptr noundef nonnull %0, i32 noundef 16, ptr noundef nonnull @.str.64, i32 noundef %28, ptr noundef %30) #11
  br label %56

31:                                               ; preds = %16
  %32 = load i32, ptr %3, align 4, !tbaa !26
  call void (ptr, i32, ptr, ...) @av_log(ptr noundef nonnull %0, i32 noundef 48, ptr noundef nonnull @.str.65, i32 noundef %32) #11
  %33 = load i32, ptr %3, align 4, !tbaa !26
  %34 = zext i32 %33 to i64
  %35 = inttoptr i64 %34 to ptr
  %36 = call ptr @av_buffer_create(ptr noundef %35, i64 noundef 4, ptr noundef nonnull @vaapi_buffer_free, ptr noundef nonnull %0, i32 noundef 1) #11
  %.not34 = icmp eq ptr %36, null
  br i1 %.not34, label %37, label %40

37:                                               ; preds = %31
  %38 = load ptr, ptr %9, align 8, !tbaa !34
  %39 = call i32 @vaDestroySurfaces(ptr noundef %38, ptr noundef nonnull %3, i32 noundef 1) #11
  br label %56

40:                                               ; preds = %31
  %41 = load i32, ptr %10, align 8, !tbaa !97
  %42 = icmp sgt i32 %41, 0
  br i1 %42, label %43, label %56

43:                                               ; preds = %40
  %44 = getelementptr inbounds nuw i8, ptr %5, i64 24
  %45 = load i32, ptr %44, align 8, !tbaa !98
  %46 = icmp slt i32 %45, %41
  br i1 %46, label %48, label %47

47:                                               ; preds = %43
  call void (ptr, i32, ptr, ...) @av_log(ptr noundef null, i32 noundef 0, ptr noundef nonnull @.str.54, ptr noundef nonnull @.str.66, ptr noundef nonnull @.str.56, i32 noundef 544) #11
  call void @abort() #14
  unreachable

48:                                               ; preds = %43
  %49 = load i32, ptr %3, align 4, !tbaa !26
  %50 = getelementptr inbounds nuw i8, ptr %5, i64 16
  %51 = load ptr, ptr %50, align 8, !tbaa !99
  %52 = sext i32 %45 to i64
  %53 = getelementptr inbounds i32, ptr %51, i64 %52
  store i32 %49, ptr %53, align 4, !tbaa !26
  %54 = load i32, ptr %44, align 8, !tbaa !98
  %55 = add nsw i32 %54, 1
  store i32 %55, ptr %44, align 8, !tbaa !98
  br label %56

56:                                               ; preds = %40, %48, %13, %37, %29
  %.0 = phi ptr [ null, %29 ], [ null, %37 ], [ null, %13 ], [ %36, %48 ], [ %36, %40 ]
  call void @llvm.lifetime.end.p0(i64 4, ptr nonnull %3) #11
  ret ptr %.0
}